; Function Attrs: mustprogress uwtable
define hidden noundef zeroext i1 @_ZN11OpenImageIO6v3_1_08PNMInput5closeEv(ptr noundef nonnull align 8 dereferenceable(264) %0) unnamed_addr #5 align 2 {
  %2 = getelementptr inbounds nuw i8, ptr %0, i64 216
  %3 = load ptr, ptr %2, align 8, !tbaa !11
  %4 = getelementptr inbounds nuw i8, ptr %0, i64 208
  %5 = load ptr, ptr %4, align 8, !tbaa !105
  %6 = icmp eq ptr %3, %5
  br i1 %6, label %_ZN11OpenImageIO6v3_1_08PNMInput4initEv.exit, label %7

7:                                                ; preds = %1
  %8 = getelementptr inbounds nuw i8, ptr %0, i64 200
  %9 = tail call noundef zeroext i1 @_ZNSt19__shrink_to_fit_auxISt6vectorIcSaIcEELb1EE8_S_do_itERS2_(ptr noundef nonnull align 8 dereferenceable(24) %8) #25
  br label %_ZN11OpenImageIO6v3_1_08PNMInput4initEv.exit

_ZN11OpenImageIO6v3_1_08PNMInput4initEv.exit:     ; preds = %1, %7
  tail call void @_ZN11OpenImageIO6v3_1_010ImageInput13ioproxy_clearEv(ptr noundef nonnull align 8 dereferenceable(264) %0)
  %10 = getelementptr inbounds nuw i8, ptr %0, i64 256
  store i32 0, ptr %10, align 8, !tbaa !12
  ret i1 true
}